target datalayout = "e-m:e-p270:32:32-p271:32:32-p272:64:64-i64:64-i128:128-f80:128-n8:16:32:64-S128"
target triple = "x86_64-pc-linux-gnu"

%struct.pg_tm = type { i32, i32, i32, i32, i32, i32, i32, i32, i32, i64, ptr }
%struct.DateTimeErrorExtra = type { ptr, ptr }

@.str.70 = private unnamed_addr constant [1 x i8] zeroinitializer, align 1
@GUC_check_errdetail_string = external global ptr, align 8
@.str.75 = private unnamed_addr constant [4 x i8] c"now\00", align 1
@.str.76 = private unnamed_addr constant [6 x i8] c"today\00", align 1
@.str.77 = private unnamed_addr constant [9 x i8] c"tomorrow\00", align 1
@.str.78 = private unnamed_addr constant [10 x i8] c"yesterday\00", align 1
@.str.79 = private unnamed_addr constant [30 x i8] c"Timestamp out of range: \22%s\22.\00", align 1

; Function Attrs: nounwind uwtable
define dso_local zeroext i1 @check_recovery_target_time(ptr noundef %0, ptr noundef %1, i32 noundef %2) #0 {
  %4 = alloca i1, align 1
  %5 = alloca ptr, align 8
  %6 = alloca ptr, align 8
  %7 = alloca i32, align 4
  %8 = alloca ptr, align 8
  %9 = alloca i32, align 4
  %10 = alloca %struct.pg_tm, align 8
  %11 = alloca ptr, align 8
  %12 = alloca i32, align 4
  %13 = alloca i32, align 4
  %14 = alloca i32, align 4
  %15 = alloca i32, align 4
  %16 = alloca [25 x ptr], align 16
  %17 = alloca [25 x i32], align 16
  %18 = alloca [153 x i8], align 16
  %19 = alloca %struct.DateTimeErrorExtra, align 8
  %20 = alloca i64, align 8
  %21 = alloca i32, align 4
  store ptr %0, ptr %5, align 8
  store ptr %1, ptr %6, align 8
  store i32 %2, ptr %7, align 4
  %22 = load ptr, ptr %5, align 8
  %23 = load ptr, ptr %22, align 8
  %24 = call i32 @strcmp(ptr noundef %23, ptr noundef @.str.70) #16
  %25 = icmp ne i32 %24, 0
  br i1 %25, label %26, label %85

26:                                               ; preds = %3
  %27 = load ptr, ptr %5, align 8
  %28 = load ptr, ptr %27, align 8
  %29 = call i32 @strcmp(ptr noundef %28, ptr noundef @.str.75) #16
  %30 = icmp eq i32 %29, 0
  br i1 %30, label %46, label %31

31:                                               ; preds = %26
  %32 = load ptr, ptr %5, align 8
  %33 = load ptr, ptr %32, align 8
  %34 = call i32 @strcmp(ptr noundef %33, ptr noundef @.str.76) #16
  %35 = icmp eq i32 %34, 0
  br i1 %35, label %46, label %36

36:                                               ; preds = %31
  %37 = load ptr, ptr %5, align 8
  %38 = load ptr, ptr %37, align 8
  %39 = call i32 @strcmp(ptr noundef %38, ptr noundef @.str.77) #16
  %40 = icmp eq i32 %39, 0
  br i1 %40, label %46, label %41

41:                                               ; preds = %36
  %42 = load ptr, ptr %5, align 8
  %43 = load ptr, ptr %42, align 8
  %44 = call i32 @strcmp(ptr noundef %43, ptr noundef @.str.78) #16
  %45 = icmp eq i32 %44, 0
  br i1 %45, label %46, label %47

46:                                               ; preds = %41, %36, %31, %26
  store i1 false, ptr %4, align 1
  br label %86

47:                                               ; preds = %41
  call void @llvm.lifetime.start.p0(i64 8, ptr %8) #14
  %48 = load ptr, ptr %5, align 8
  %49 = load ptr, ptr %48, align 8
  store ptr %49, ptr %8, align 8
  call void @llvm.lifetime.start.p0(i64 4, ptr %9) #14
  call void @llvm.lifetime.start.p0(i64 56, ptr %10) #14
  call void @llvm.lifetime.start.p0(i64 8, ptr %11) #14
  store ptr %10, ptr %11, align 8
  call void @llvm.lifetime.start.p0(i64 4, ptr %12) #14
  call void @llvm.lifetime.start.p0(i64 4, ptr %13) #14
  call void @llvm.lifetime.start.p0(i64 4, ptr %14) #14
  call void @llvm.lifetime.start.p0(i64 4, ptr %15) #14
  call void @llvm.lifetime.start.p0(i64 200, ptr %16) #14
  call void @llvm.lifetime.start.p0(i64 100, ptr %17) #14
  call void @llvm.lifetime.start.p0(i64 153, ptr %18) #14
  call void @llvm.lifetime.start.p0(i64 16, ptr %19) #14
  call void @llvm.lifetime.start.p0(i64 8, ptr %20) #14
  %50 = load ptr, ptr %8, align 8
  %51 = getelementptr inbounds [153 x i8], ptr %18, i64 0, i64 0
  %52 = getelementptr inbounds [25 x ptr], ptr %16, i64 0, i64 0
  %53 = getelementptr inbounds [25 x i32], ptr %17, i64 0, i64 0
  %54 = call i32 @ParseDateTime(ptr noundef %50, ptr noundef %51, i64 noundef 153, ptr noundef %52, ptr noundef %53, i32 noundef 25, ptr noundef %14)
  store i32 %54, ptr %15, align 4
  %55 = load i32, ptr %15, align 4
  %56 = icmp eq i32 %55, 0
  br i1 %56, label %57, label %63

57:                                               ; preds = %47
  %58 = getelementptr inbounds [25 x ptr], ptr %16, i64 0, i64 0
  %59 = getelementptr inbounds [25 x i32], ptr %17, i64 0, i64 0
  %60 = load i32, ptr %14, align 4
  %61 = load ptr, ptr %11, align 8
  %62 = call i32 @DecodeDateTime(ptr noundef %58, ptr noundef %59, i32 noundef %60, ptr noundef %13, ptr noundef %61, ptr noundef %9, ptr noundef %12, ptr noundef %19)
  store i32 %62, ptr %15, align 4
  br label %63

63:                                               ; preds = %57, %47
  %64 = load i32, ptr %15, align 4
  %65 = icmp ne i32 %64, 0
  br i1 %65, label %66, label %67

66:                                               ; preds = %63
  store i1 false, ptr %4, align 1
  store i32 1, ptr %21, align 4
  br label %82

67:                                               ; preds = %63
  %68 = load i32, ptr %13, align 4
  %69 = icmp ne i32 %68, 2
  br i1 %69, label %70, label %71

70:                                               ; preds = %67
  store i1 false, ptr %4, align 1
  store i32 1, ptr %21, align 4
  br label %82

71:                                               ; preds = %67
  %72 = load ptr, ptr %11, align 8
  %73 = load i32, ptr %9, align 4
  %74 = call i32 @tm2timestamp(ptr noundef %72, i32 noundef %73, ptr noundef %12, ptr noundef %20)
  %75 = icmp ne i32 %74, 0
  br i1 %75, label %76, label %81

76:                                               ; preds = %71
  %77 = call ptr @__errno_location() #17
  %78 = load i32, ptr %77, align 4
  call void @pre_format_elog_string(i32 noundef %78, ptr noundef null)
  %79 = load ptr, ptr %8, align 8
  %80 = call ptr (ptr, ...) @format_elog_string(ptr noundef @.str.79, ptr noundef %79)
  store ptr %80, ptr @GUC_check_errdetail_string, align 8
  store i1 false, ptr %4, align 1
  store i32 1, ptr %21, align 4
  br label %82

81:                                               ; preds = %71
  store i32 0, ptr %21, align 4
  br label %82

82:                                               ; preds = %81, %76, %70, %66
  call void @llvm.lifetime.end.p0(i64 8, ptr %20) #14
  call void @llvm.lifetime.end.p0(i64 16, ptr %19) #14
  call void @llvm.lifetime.end.p0(i64 153, ptr %18) #14
  call void @llvm.lifetime.end.p0(i64 100, ptr %17) #14
  call void @llvm.lifetime.end.p0(i64 200, ptr %16) #14
  call void @llvm.lifetime.end.p0(i64 4, ptr %15) #14
  call void @llvm.lifetime.end.p0(i64 4, ptr %14) #14
  call void @llvm.lifetime.end.p0(i64 4, ptr %13) #14
  call void @llvm.lifetime.end.p0(i64 4, ptr %12) #14
  call void @llvm.lifetime.end.p0(i64 8, ptr %11) #14
  call void @llvm.lifetime.end.p0(i64 56, ptr %10) #14
  call void @llvm.lifetime.end.p0(i64 4, ptr %9) #14
  call void @llvm.lifetime.end.p0(i64 8, ptr %8) #14
  %83 = load i32, ptr %21, align 4
  switch i32 %83, label %88 [
    i32 0, label %84
    i32 1, label %86
  ]

84:                                               ; preds = %82
  br label %85

85:                                               ; preds = %84, %3
  store i1 true, ptr %4, align 1
  br label %86

86:                                               ; preds = %85, %82, %46
  %87 = load i1, ptr %4, align 1
  ret i1 %87

88:                                               ; preds = %82
  unreachable
}