; Function Attrs: nounwind uwtable
define dso_local noundef zeroext i1 @check_recovery_target_time(ptr noundef readonly captures(none) %0, ptr noundef readnone captures(none) %1, i32 noundef %2) local_unnamed_addr #2 {
  %4 = alloca i32, align 4
  %5 = alloca %struct.pg_tm, align 8
  %6 = alloca i32, align 4
  %7 = alloca i32, align 4
  %8 = alloca i32, align 4
  %9 = alloca [25 x ptr], align 16
  %10 = alloca [25 x i32], align 16
  %11 = alloca [153 x i8], align 16
  %12 = alloca %struct.DateTimeErrorExtra, align 8
  %13 = alloca i64, align 8
  %14 = load ptr, ptr %0, align 8
  %strcmpload = load i8, ptr %14, align 1
  %.not = icmp eq i8 %strcmpload, 0
  br i1 %.not, label %42, label %15

15:                                               ; preds = %3
  %16 = tail call i32 @strcmp(ptr noundef nonnull dereferenceable(1) %14, ptr noundef nonnull dereferenceable(4) @.str.75) #26
  %17 = icmp eq i32 %16, 0
  br i1 %17, label %42, label %18

18:                                               ; preds = %15
  %19 = tail call i32 @strcmp(ptr noundef nonnull dereferenceable(1) %14, ptr noundef nonnull dereferenceable(6) @.str.76) #26
  %20 = icmp eq i32 %19, 0
  br i1 %20, label %42, label %21

21:                                               ; preds = %18
  %22 = tail call i32 @strcmp(ptr noundef nonnull dereferenceable(1) %14, ptr noundef nonnull dereferenceable(9) @.str.77) #26
  %23 = icmp eq i32 %22, 0
  br i1 %23, label %42, label %24

24:                                               ; preds = %21
  %25 = tail call i32 @strcmp(ptr noundef nonnull dereferenceable(1) %14, ptr noundef nonnull dereferenceable(10) @.str.78) #26
  %26 = icmp eq i32 %25, 0
  br i1 %26, label %42, label %27

27:                                               ; preds = %24
  call void @llvm.lifetime.start.p0(i64 4, ptr nonnull %4) #23
  call void @llvm.lifetime.start.p0(i64 56, ptr nonnull %5) #23
  call void @llvm.lifetime.start.p0(i64 4, ptr nonnull %6) #23
  call void @llvm.lifetime.start.p0(i64 4, ptr nonnull %7) #23
  call void @llvm.lifetime.start.p0(i64 4, ptr nonnull %8) #23
  call void @llvm.lifetime.start.p0(i64 200, ptr nonnull %9) #23
  call void @llvm.lifetime.start.p0(i64 100, ptr nonnull %10) #23
  call void @llvm.lifetime.start.p0(i64 153, ptr nonnull %11) #23
  call void @llvm.lifetime.start.p0(i64 16, ptr nonnull %12) #23
  call void @llvm.lifetime.start.p0(i64 8, ptr nonnull %13) #23
  %28 = call i32 @ParseDateTime(ptr noundef nonnull %14, ptr noundef nonnull %11, i64 noundef 153, ptr noundef nonnull %9, ptr noundef nonnull %10, i32 noundef 25, ptr noundef nonnull %8) #23
  %29 = icmp eq i32 %28, 0
  br i1 %29, label %30, label %.sink.split

30:                                               ; preds = %27
  %31 = load i32, ptr %8, align 4
  %32 = call i32 @DecodeDateTime(ptr noundef nonnull %9, ptr noundef nonnull %10, i32 noundef %31, ptr noundef nonnull %7, ptr noundef nonnull %5, ptr noundef nonnull %4, ptr noundef nonnull %6, ptr noundef nonnull %12) #23
  %33 = icmp eq i32 %32, 0
  %34 = load i32, ptr %7, align 4
  %.not17 = icmp eq i32 %34, 2
  %or.cond = select i1 %33, i1 %.not17, i1 false
  br i1 %or.cond, label %35, label %.sink.split

35:                                               ; preds = %30
  %36 = load i32, ptr %4, align 4
  %37 = call i32 @tm2timestamp(ptr noundef nonnull %5, i32 noundef %36, ptr noundef nonnull %6, ptr noundef nonnull %13) #23
  %.not18 = icmp eq i32 %37, 0
  br i1 %.not18, label %.sink.split, label %38

38:                                               ; preds = %35
  %39 = tail call ptr @__errno_location() #25
  %40 = load i32, ptr %39, align 4
  call void @pre_format_elog_string(i32 noundef %40, ptr noundef null) #23
  %41 = call ptr (ptr, ...) @format_elog_string(ptr noundef nonnull @.str.79, ptr noundef nonnull %14) #23
  store ptr %41, ptr @GUC_check_errdetail_string, align 8
  br label %.sink.split

.sink.split:                                      ; preds = %35, %27, %30, %38
  %.014.ph = phi i1 [ false, %38 ], [ false, %30 ], [ false, %27 ], [ true, %35 ]
  call void @llvm.lifetime.end.p0(i64 8, ptr nonnull %13) #23
  call void @llvm.lifetime.end.p0(i64 16, ptr nonnull %12) #23
  call void @llvm.lifetime.end.p0(i64 153, ptr nonnull %11) #23
  call void @llvm.lifetime.end.p0(i64 100, ptr nonnull %10) #23
  call void @llvm.lifetime.end.p0(i64 200, ptr nonnull %9) #23
  call void @llvm.lifetime.end.p0(i64 4, ptr nonnull %8) #23
  call void @llvm.lifetime.end.p0(i64 4, ptr nonnull %7) #23
  call void @llvm.lifetime.end.p0(i64 4, ptr nonnull %6) #23
  call void @llvm.lifetime.end.p0(i64 56, ptr nonnull %5) #23
  call void @llvm.lifetime.end.p0(i64 4, ptr nonnull %4) #23
  br label %42

42:                                               ; preds = %.sink.split, %3, %15, %18, %21, %24
  %.014 = phi i1 [ false, %24 ], [ false, %21 ], [ false, %18 ], [ false, %15 ], [ true, %3 ], [ %.014.ph, %.sink.split ]
  ret i1 %.014
}